target datalayout = "e-m:e-p270:32:32-p271:32:32-p272:64:64-i64:64-i128:128-f80:128-n8:16:32:64-S128"
target triple = "x86_64-unknown-linux-gnu"

%"class.google::protobuf::internal::InternalMetadata" = type { i64 }
%"class.google::protobuf::internal::CachedSize" = type { i32 }
%"class.google::protobuf::Message" = type { %"class.google::protobuf::MessageLite" }
%"class.google::protobuf::MessageLite" = type { ptr, %"class.google::protobuf::internal::InternalMetadata" }
%"class.google::protobuf::Value" = type { %"class.google::protobuf::Message", %union.anon.5 }
%union.anon.5 = type { %"struct.google::protobuf::Value::Impl_" }
%"struct.google::protobuf::Value::Impl_" = type { %"union.google::protobuf::Value::Impl_::KindUnion", %"class.google::protobuf::internal::CachedSize", [1 x i32] }
%"union.google::protobuf::Value::Impl_::KindUnion" = type { double }

; Function Attrs: mustprogress nounwind uwtable
define linkonce_odr void @_ZSt4swapIjENSt9enable_ifIXsr6__and_ISt6__not_ISt15__is_tuple_likeIT_EESt21is_move_constructibleIS3_ESt18is_move_assignableIS3_EEE5valueEvE4typeERS3_SC_(ptr noundef nonnull align 4 dereferenceable(4) %__a, ptr noundef nonnull align 4 dereferenceable(4) %__b) #5 comdat {
entry:
  %__a.addr = alloca ptr, align 8
  %__b.addr = alloca ptr, align 8
  %__tmp = alloca i32, align 4
  store ptr %__a, ptr %__a.addr, align 8
  store ptr %__b, ptr %__b.addr, align 8
  %0 = load ptr, ptr %__a.addr, align 8
  %1 = load i32, ptr %0, align 4
  store i32 %1, ptr %__tmp, align 4
  %2 = load ptr, ptr %__b.addr, align 8
  %3 = load i32, ptr %2, align 4
  %4 = load ptr, ptr %__a.addr, align 8
  store i32 %3, ptr %4, align 4
  %5 = load i32, ptr %__tmp, align 4
  %6 = load ptr, ptr %__b.addr, align 8
  store i32 %5, ptr %6, align 4
  ret void
}

; Function Attrs: mustprogress nounwind uwtable
define linkonce_odr void @_ZSt4swapIN6google8protobuf5Value5Impl_9KindUnionEENSt9enable_ifIXsr6__and_ISt6__not_ISt15__is_tuple_likeIT_EESt21is_move_constructibleIS8_ESt18is_move_assignableIS8_EEE5valueEvE4typeERS8_SH_(ptr noundef nonnull align 8 dereferenceable(8) %__a, ptr noundef nonnull align 8 dereferenceable(8) %__b) #5 comdat {
entry:
  %__a.addr = alloca ptr, align 8
  %__b.addr = alloca ptr, align 8
  %__tmp = alloca %"union.google::protobuf::Value::Impl_::KindUnion", align 8
  store ptr %__a, ptr %__a.addr, align 8
  store ptr %__b, ptr %__b.addr, align 8
  %0 = load ptr, ptr %__a.addr, align 8
  call void @llvm.memcpy.p0.p0.i64(ptr align 8 %__tmp, ptr align 8 %0, i64 8, i1 false)
  %1 = load ptr, ptr %__b.addr, align 8
  %2 = load ptr, ptr %__a.addr, align 8
  call void @llvm.memcpy.p0.p0.i64(ptr align 8 %2, ptr align 8 %1, i64 8, i1 false)
  %3 = load ptr, ptr %__b.addr, align 8
  call void @llvm.memcpy.p0.p0.i64(ptr align 8 %3, ptr align 8 %__tmp, i64 8, i1 false)
  ret void
}

; Function Attrs: mustprogress nounwind uwtable
define linkonce_odr void @_ZSt4swapIlENSt9enable_ifIXsr6__and_ISt6__not_ISt15__is_tuple_likeIT_EESt21is_move_constructibleIS3_ESt18is_move_assignableIS3_EEE5valueEvE4typeERS3_SC_(ptr noundef nonnull align 8 dereferenceable(8) %__a, ptr noundef nonnull align 8 dereferenceable(8) %__b) #5 comdat {
entry:
  %__a.addr = alloca ptr, align 8
  %__b.addr = alloca ptr, align 8
  %__tmp = alloca i64, align 8
  store ptr %__a, ptr %__a.addr, align 8
  store ptr %__b, ptr %__b.addr, align 8
  %0 = load ptr, ptr %__a.addr, align 8
  %1 = load i64, ptr %0, align 8
  store i64 %1, ptr %__tmp, align 8
  %2 = load ptr, ptr %__b.addr, align 8
  %3 = load i64, ptr %2, align 8
  %4 = load ptr, ptr %__a.addr, align 8
  store i64 %3, ptr %4, align 8
  %5 = load i64, ptr %__tmp, align 8
  %6 = load ptr, ptr %__b.addr, align 8
  store i64 %5, ptr %6, align 8
  ret void
}

; Function Attrs: mustprogress uwtable
define void @_ZN6google8protobuf5Value12InternalSwapEPS1_(ptr noundef nonnull align 8 dereferenceable(32) %this, ptr noalias noundef %other) #4 align 2 {
entry:
  %this.addr.i = alloca ptr, align 8
  %other.addr.i = alloca ptr, align 8
  %this.addr = alloca ptr, align 8
  %other.addr = alloca ptr, align 8
  store ptr %this, ptr %this.addr, align 8
  store ptr %other, ptr %other.addr, align 8
  %this1 = load ptr, ptr %this.addr, align 8
  %_internal_metadata_ = getelementptr inbounds %"class.google::protobuf::MessageLite", ptr %this1, i32 0, i32 1
  %0 = load ptr, ptr %other.addr, align 8
  %_internal_metadata_2 = getelementptr inbounds %"class.google::protobuf::MessageLite", ptr %0, i32 0, i32 1
  call void @llvm.experimental.noalias.scope.decl(metadata !11)
  store ptr %_internal_metadata_, ptr %this.addr.i, align 8, !noalias !11
  store ptr %_internal_metadata_2, ptr %other.addr.i, align 8, !noalias !11
  %this1.i = load ptr, ptr %this.addr.i, align 8, !noalias !11
  %1 = load ptr, ptr %other.addr.i, align 8, !noalias !11
  call void @_ZSt4swapIlENSt9enable_ifIXsr6__and_ISt6__not_ISt15__is_tuple_likeIT_EESt21is_move_constructibleIS3_ESt18is_move_assignableIS3_EEE5valueEvE4typeERS3_SC_(ptr noundef nonnull align 8 dereferenceable(8) %this1.i, ptr noundef nonnull align 8 dereferenceable(8) %1) #3
  %2 = getelementptr inbounds %"class.google::protobuf::Value", ptr %this1, i32 0, i32 1
  %kind_ = getelementptr inbounds %"struct.google::protobuf::Value::Impl_", ptr %2, i32 0, i32 0
  %3 = load ptr, ptr %other.addr, align 8
  %4 = getelementptr inbounds %"class.google::protobuf::Value", ptr %3, i32 0, i32 1
  %kind_3 = getelementptr inbounds %"struct.google::protobuf::Value::Impl_", ptr %4, i32 0, i32 0
  call void @_ZSt4swapIN6google8protobuf5Value5Impl_9KindUnionEENSt9enable_ifIXsr6__and_ISt6__not_ISt15__is_tuple_likeIT_EESt21is_move_constructibleIS8_ESt18is_move_assignableIS8_EEE5valueEvE4typeERS8_SH_(ptr noundef nonnull align 8 dereferenceable(8) %kind_, ptr noundef nonnull align 8 dereferenceable(8) %kind_3) #3
  %5 = getelementptr inbounds %"class.google::protobuf::Value", ptr %this1, i32 0, i32 1
  %_oneof_case_ = getelementptr inbounds %"struct.google::protobuf::Value::Impl_", ptr %5, i32 0, i32 2
  %arrayidx = getelementptr inbounds [1 x i32], ptr %_oneof_case_, i64 0, i64 0
  %6 = load ptr, ptr %other.addr, align 8
  %7 = getelementptr inbounds %"class.google::protobuf::Value", ptr %6, i32 0, i32 1
  %_oneof_case_4 = getelementptr inbounds %"struct.google::protobuf::Value::Impl_", ptr %7, i32 0, i32 2
  %arrayidx5 = getelementptr inbounds [1 x i32], ptr %_oneof_case_4, i64 0, i64 0
  call void @_ZSt4swapIjENSt9enable_ifIXsr6__and_ISt6__not_ISt15__is_tuple_likeIT_EESt21is_move_constructibleIS3_ESt18is_move_assignableIS3_EEE5valueEvE4typeERS3_SC_(ptr noundef nonnull align 4 dereferenceable(4) %arrayidx, ptr noundef nonnull align 4 dereferenceable(4) %arrayidx5) #3
  ret void
}