; Function Attrs: mustprogress nofree norecurse nosync nounwind willreturn memory(argmem: readwrite) uwtable
define void @_ZN6google8protobuf5Value12InternalSwapEPS1_(ptr nocapture noundef nonnull align 8 dereferenceable(32) %this, ptr noalias nocapture noundef %other) local_unnamed_addr #9 align 2 {
entry:
  %_internal_metadata_ = getelementptr inbounds i8, ptr %this, i64 8
  %_internal_metadata_2 = getelementptr inbounds i8, ptr %other, i64 8
  %0 = load i64, ptr %_internal_metadata_, align 8
  %1 = getelementptr inbounds i8, ptr %this, i64 16
  %2 = getelementptr inbounds i8, ptr %other, i64 16
  %__tmp.sroa.0.0.copyload.i = load double, ptr %1, align 8
  %3 = load <2 x i64>, ptr %_internal_metadata_2, align 8
  store i64 %0, ptr %_internal_metadata_2, align 8
  store <2 x i64> %3, ptr %_internal_metadata_, align 8
  store double %__tmp.sroa.0.0.copyload.i, ptr %2, align 8
  %_oneof_case_ = getelementptr inbounds i8, ptr %this, i64 28
  %_oneof_case_4 = getelementptr inbounds i8, ptr %other, i64 28
  %4 = load i32, ptr %_oneof_case_, align 4
  %5 = load i32, ptr %_oneof_case_4, align 4
  store i32 %5, ptr %_oneof_case_, align 4
  store i32 %4, ptr %_oneof_case_4, align 4
  ret void
}